target datalayout = "e-m:e-p270:32:32-p271:32:32-p272:64:64-i64:64-i128:128-f80:128-n8:16:32:64-S128"
target triple = "x86_64-pc-linux-gnu"

%struct.asn1_string_st = type { i32, i32, ptr, i64 }
%struct.tm = type { i32, i32, i32, i32, i32, i32, i32, i32, i32, i64, ptr }

@.str = private unnamed_addr constant [125 x i8] c"generated/home/dtcxzyw/WorkSpace/Projects/compilers/llvm-opt-benchmark/bench/libquic/libquic/boringssl/crypto/asn1/a_utctm.c\00", align 1
@.str.1 = private unnamed_addr constant [26 x i8] c"%02d%02d%02d%02d%02d%02dZ\00", align 1

; Function Attrs: nounwind uwtable
define hidden ptr @ASN1_UTCTIME_adj(ptr noundef %0, i64 noundef %1, i32 noundef %2, i64 noundef %3) #0 {
  %5 = alloca ptr, align 8
  %6 = alloca ptr, align 8
  %7 = alloca i64, align 8
  %8 = alloca i32, align 4
  %9 = alloca i64, align 8
  %10 = alloca ptr, align 8
  %11 = alloca ptr, align 8
  %12 = alloca %struct.tm, align 8
  %13 = alloca i64, align 8
  %14 = alloca i32, align 4
  %15 = alloca i32, align 4
  store ptr %0, ptr %6, align 8, !tbaa !11
  store i64 %1, ptr %7, align 8, !tbaa !33
  store i32 %2, ptr %8, align 4, !tbaa !19
  store i64 %3, ptr %9, align 8, !tbaa !33
  call void @llvm.lifetime.start.p0(i64 8, ptr %10) #6
  call void @llvm.lifetime.start.p0(i64 8, ptr %11) #6
  call void @llvm.lifetime.start.p0(i64 56, ptr %12) #6
  call void @llvm.lifetime.start.p0(i64 8, ptr %13) #6
  store i64 20, ptr %13, align 8, !tbaa !33
  call void @llvm.lifetime.start.p0(i64 4, ptr %14) #6
  store i32 0, ptr %14, align 4, !tbaa !19
  %16 = load ptr, ptr %6, align 8, !tbaa !11
  %17 = icmp eq ptr %16, null
  br i1 %17, label %18, label %20

18:                                               ; preds = %4
  store i32 1, ptr %14, align 4, !tbaa !19
  %19 = call ptr @ASN1_STRING_type_new(i32 noundef 23)
  store ptr %19, ptr %6, align 8, !tbaa !11
  br label %20

20:                                               ; preds = %18, %4
  %21 = load ptr, ptr %6, align 8, !tbaa !11
  %22 = icmp eq ptr %21, null
  br i1 %22, label %23, label %24

23:                                               ; preds = %20
  br label %118

24:                                               ; preds = %20
  %25 = call ptr @OPENSSL_gmtime(ptr noundef %7, ptr noundef %12)
  store ptr %25, ptr %11, align 8, !tbaa !6
  %26 = load ptr, ptr %11, align 8, !tbaa !6
  %27 = icmp eq ptr %26, null
  br i1 %27, label %28, label %29

28:                                               ; preds = %24
  br label %118

29:                                               ; preds = %24
  %30 = load i32, ptr %8, align 4, !tbaa !19
  %31 = icmp ne i32 %30, 0
  br i1 %31, label %35, label %32

32:                                               ; preds = %29
  %33 = load i64, ptr %9, align 8, !tbaa !33
  %34 = icmp ne i64 %33, 0
  br i1 %34, label %35, label %43

35:                                               ; preds = %32, %29
  %36 = load ptr, ptr %11, align 8, !tbaa !6
  %37 = load i32, ptr %8, align 4, !tbaa !19
  %38 = load i64, ptr %9, align 8, !tbaa !33
  %39 = call i32 @OPENSSL_gmtime_adj(ptr noundef %36, i32 noundef %37, i64 noundef %38)
  %40 = icmp ne i32 %39, 0
  br i1 %40, label %42, label %41

41:                                               ; preds = %35
  br label %118

42:                                               ; preds = %35
  br label %43

43:                                               ; preds = %42, %32
  %44 = load ptr, ptr %11, align 8, !tbaa !6
  %45 = getelementptr inbounds nuw %struct.tm, ptr %44, i32 0, i32 5
  %46 = load i32, ptr %45, align 4, !tbaa !25
  %47 = icmp slt i32 %46, 50
  br i1 %47, label %53, label %48

48:                                               ; preds = %43
  %49 = load ptr, ptr %11, align 8, !tbaa !6
  %50 = getelementptr inbounds nuw %struct.tm, ptr %49, i32 0, i32 5
  %51 = load i32, ptr %50, align 4, !tbaa !25
  %52 = icmp sge i32 %51, 150
  br i1 %52, label %53, label %54

53:                                               ; preds = %48, %43
  br label %118

54:                                               ; preds = %48
  %55 = load ptr, ptr %6, align 8, !tbaa !11
  %56 = getelementptr inbounds nuw %struct.asn1_string_st, ptr %55, i32 0, i32 2
  %57 = load ptr, ptr %56, align 8, !tbaa !20
  store ptr %57, ptr %10, align 8, !tbaa !21
  %58 = load ptr, ptr %10, align 8, !tbaa !21
  %59 = icmp eq ptr %58, null
  br i1 %59, label %67, label %60

60:                                               ; preds = %54
  %61 = load ptr, ptr %6, align 8, !tbaa !11
  %62 = getelementptr inbounds nuw %struct.asn1_string_st, ptr %61, i32 0, i32 0
  %63 = load i32, ptr %62, align 8, !tbaa !18
  %64 = sext i32 %63 to i64
  %65 = load i64, ptr %13, align 8, !tbaa !33
  %66 = icmp ult i64 %64, %65
  br i1 %66, label %67, label %86

67:                                               ; preds = %60, %54
  %68 = load i64, ptr %13, align 8, !tbaa !33
  %69 = call noalias ptr @malloc(i64 noundef %68) #8
  store ptr %69, ptr %10, align 8, !tbaa !21
  %70 = load ptr, ptr %10, align 8, !tbaa !21
  %71 = icmp eq ptr %70, null
  br i1 %71, label %72, label %73

72:                                               ; preds = %67
  call void @ERR_put_error(i32 noundef 12, i32 noundef 0, i32 noundef 65, ptr noundef @.str, i32 noundef 253)
  br label %118

73:                                               ; preds = %67
  %74 = load ptr, ptr %6, align 8, !tbaa !11
  %75 = getelementptr inbounds nuw %struct.asn1_string_st, ptr %74, i32 0, i32 2
  %76 = load ptr, ptr %75, align 8, !tbaa !20
  %77 = icmp ne ptr %76, null
  br i1 %77, label %78, label %82

78:                                               ; preds = %73
  %79 = load ptr, ptr %6, align 8, !tbaa !11
  %80 = getelementptr inbounds nuw %struct.asn1_string_st, ptr %79, i32 0, i32 2
  %81 = load ptr, ptr %80, align 8, !tbaa !20
  call void @free(ptr noundef %81) #6
  br label %82

82:                                               ; preds = %78, %73
  %83 = load ptr, ptr %10, align 8, !tbaa !21
  %84 = load ptr, ptr %6, align 8, !tbaa !11
  %85 = getelementptr inbounds nuw %struct.asn1_string_st, ptr %84, i32 0, i32 2
  store ptr %83, ptr %85, align 8, !tbaa !20
  br label %86

86:                                               ; preds = %82, %60
  %87 = load ptr, ptr %10, align 8, !tbaa !21
  %88 = load i64, ptr %13, align 8, !tbaa !33
  %89 = load ptr, ptr %11, align 8, !tbaa !6
  %90 = getelementptr inbounds nuw %struct.tm, ptr %89, i32 0, i32 5
  %91 = load i32, ptr %90, align 4, !tbaa !25
  %92 = srem i32 %91, 100
  %93 = load ptr, ptr %11, align 8, !tbaa !6
  %94 = getelementptr inbounds nuw %struct.tm, ptr %93, i32 0, i32 4
  %95 = load i32, ptr %94, align 8, !tbaa !26
  %96 = add nsw i32 %95, 1
  %97 = load ptr, ptr %11, align 8, !tbaa !6
  %98 = getelementptr inbounds nuw %struct.tm, ptr %97, i32 0, i32 3
  %99 = load i32, ptr %98, align 4, !tbaa !27
  %100 = load ptr, ptr %11, align 8, !tbaa !6
  %101 = getelementptr inbounds nuw %struct.tm, ptr %100, i32 0, i32 2
  %102 = load i32, ptr %101, align 8, !tbaa !28
  %103 = load ptr, ptr %11, align 8, !tbaa !6
  %104 = getelementptr inbounds nuw %struct.tm, ptr %103, i32 0, i32 1
  %105 = load i32, ptr %104, align 4, !tbaa !29
  %106 = load ptr, ptr %11, align 8, !tbaa !6
  %107 = getelementptr inbounds nuw %struct.tm, ptr %106, i32 0, i32 0
  %108 = load i32, ptr %107, align 8, !tbaa !23
  %109 = call i32 (ptr, i64, ptr, ...) @BIO_snprintf(ptr noundef %87, i64 noundef %88, ptr noundef @.str.1, i32 noundef %92, i32 noundef %96, i32 noundef %99, i32 noundef %102, i32 noundef %105, i32 noundef %108)
  %110 = load ptr, ptr %10, align 8, !tbaa !21
  %111 = call i64 @strlen(ptr noundef %110) #7
  %112 = trunc i64 %111 to i32
  %113 = load ptr, ptr %6, align 8, !tbaa !11
  %114 = getelementptr inbounds nuw %struct.asn1_string_st, ptr %113, i32 0, i32 0
  store i32 %112, ptr %114, align 8, !tbaa !18
  %115 = load ptr, ptr %6, align 8, !tbaa !11
  %116 = getelementptr inbounds nuw %struct.asn1_string_st, ptr %115, i32 0, i32 1
  store i32 23, ptr %116, align 4, !tbaa !13
  %117 = load ptr, ptr %6, align 8, !tbaa !11
  store ptr %117, ptr %5, align 8
  store i32 1, ptr %15, align 4
  br label %127

118:                                              ; preds = %72, %53, %41, %28, %23
  %119 = load i32, ptr %14, align 4, !tbaa !19
  %120 = icmp ne i32 %119, 0
  br i1 %120, label %121, label %126

121:                                              ; preds = %118
  %122 = load ptr, ptr %6, align 8, !tbaa !11
  %123 = icmp ne ptr %122, null
  br i1 %123, label %124, label %126

124:                                              ; preds = %121
  %125 = load ptr, ptr %6, align 8, !tbaa !11
  call void @ASN1_STRING_free(ptr noundef %125)
  br label %126

126:                                              ; preds = %124, %121, %118
  store ptr null, ptr %5, align 8
  store i32 1, ptr %15, align 4
  br label %127

127:                                              ; preds = %126, %86
  call void @llvm.lifetime.end.p0(i64 4, ptr %14) #6
  call void @llvm.lifetime.end.p0(i64 8, ptr %13) #6
  call void @llvm.lifetime.end.p0(i64 56, ptr %12) #6
  call void @llvm.lifetime.end.p0(i64 8, ptr %11) #6
  call void @llvm.lifetime.end.p0(i64 8, ptr %10) #6
  %128 = load ptr, ptr %5, align 8
  ret ptr %128
}