; Function Attrs: nounwind uwtable
define hidden ptr @ASN1_UTCTIME_adj(ptr noundef %0, i64 noundef %1, i32 noundef %2, i64 noundef %3) local_unnamed_addr #0 {
  %5 = alloca i64, align 8
  %6 = alloca %struct.tm, align 8
  store i64 %1, ptr %5, align 8, !tbaa !28
  call void @llvm.lifetime.start.p0(i64 56, ptr nonnull %6) #6
  %7 = icmp eq ptr %0, null
  br i1 %7, label %8, label %.thread

8:                                                ; preds = %4
  %9 = tail call ptr @ASN1_STRING_type_new(i32 noundef 23) #6
  %10 = icmp eq ptr %9, null
  br i1 %10, label %.thread54, label %.thread

.thread:                                          ; preds = %4, %8
  %.03950 = phi ptr [ %9, %8 ], [ %0, %4 ]
  %11 = call ptr @OPENSSL_gmtime(ptr noundef nonnull %5, ptr noundef nonnull %6) #6
  %12 = icmp eq ptr %11, null
  br i1 %12, label %55, label %13

13:                                               ; preds = %.thread
  %14 = icmp ne i32 %2, 0
  %15 = icmp ne i64 %3, 0
  %or.cond = or i1 %14, %15
  br i1 %or.cond, label %16, label %18

16:                                               ; preds = %13
  %17 = call i32 @OPENSSL_gmtime_adj(ptr noundef nonnull %11, i32 noundef %2, i64 noundef %3) #6
  %.not = icmp eq i32 %17, 0
  br i1 %.not, label %55, label %18

18:                                               ; preds = %16, %13
  %19 = getelementptr inbounds nuw i8, ptr %11, i64 20
  %20 = load i32, ptr %19, align 4, !tbaa !22
  %21 = add i32 %20, -150
  %or.cond48 = icmp ult i32 %21, -100
  br i1 %or.cond48, label %55, label %22

22:                                               ; preds = %18
  %23 = getelementptr inbounds nuw i8, ptr %.03950, i64 8
  %24 = load ptr, ptr %23, align 8, !tbaa !15
  %25 = icmp eq ptr %24, null
  br i1 %25, label %29, label %26

26:                                               ; preds = %22
  %27 = load i32, ptr %.03950, align 8, !tbaa !14
  %28 = icmp ult i32 %27, 20
  br i1 %28, label %.thread52, label %38

29:                                               ; preds = %22
  %30 = call noalias dereferenceable_or_null(20) ptr @malloc(i64 noundef 20) #8
  %31 = icmp eq ptr %30, null
  br i1 %31, label %34, label %36

.thread52:                                        ; preds = %26
  %32 = call noalias dereferenceable_or_null(20) ptr @malloc(i64 noundef 20) #8
  %33 = icmp eq ptr %32, null
  br i1 %33, label %34, label %35

34:                                               ; preds = %.thread52, %29
  call void @ERR_put_error(i32 noundef 12, i32 noundef 0, i32 noundef 65, ptr noundef nonnull @.str, i32 noundef 253) #6
  br label %55

35:                                               ; preds = %.thread52
  call void @free(ptr noundef nonnull %24) #6
  %.pre.pre = load i32, ptr %19, align 4, !tbaa !22
  br label %36

36:                                               ; preds = %29, %35
  %.pre = phi i32 [ %.pre.pre, %35 ], [ %20, %29 ]
  %37 = phi ptr [ %32, %35 ], [ %30, %29 ]
  store ptr %37, ptr %23, align 8, !tbaa !15
  br label %38

38:                                               ; preds = %36, %26
  %39 = phi i32 [ %.pre, %36 ], [ %20, %26 ]
  %.040 = phi ptr [ %37, %36 ], [ %24, %26 ]
  %40 = srem i32 %39, 100
  %41 = getelementptr inbounds nuw i8, ptr %11, i64 16
  %42 = load i32, ptr %41, align 8, !tbaa !23
  %43 = add nsw i32 %42, 1
  %44 = getelementptr inbounds nuw i8, ptr %11, i64 12
  %45 = load i32, ptr %44, align 4, !tbaa !24
  %46 = getelementptr inbounds nuw i8, ptr %11, i64 8
  %47 = load i32, ptr %46, align 8, !tbaa !25
  %48 = getelementptr inbounds nuw i8, ptr %11, i64 4
  %49 = load i32, ptr %48, align 4, !tbaa !26
  %50 = load i32, ptr %11, align 8, !tbaa !20
  %51 = call i32 (ptr, i64, ptr, ...) @BIO_snprintf(ptr noundef nonnull %.040, i64 noundef 20, ptr noundef nonnull @.str.1, i32 noundef %40, i32 noundef %43, i32 noundef %45, i32 noundef %47, i32 noundef %49, i32 noundef %50) #6
  %52 = call i64 @strlen(ptr noundef nonnull dereferenceable(1) %.040) #7
  %53 = trunc i64 %52 to i32
  store i32 %53, ptr %.03950, align 8, !tbaa !14
  %54 = getelementptr inbounds nuw i8, ptr %.03950, i64 4
  store i32 23, ptr %54, align 4, !tbaa !6
  br label %.thread54

55:                                               ; preds = %18, %16, %.thread, %34
  br i1 %7, label %56, label %.thread54

56:                                               ; preds = %55
  call void @ASN1_STRING_free(ptr noundef nonnull %.03950) #6
  br label %.thread54

.thread54:                                        ; preds = %8, %55, %56, %38
  %.038 = phi ptr [ %.03950, %38 ], [ null, %56 ], [ null, %55 ], [ null, %8 ]
  call void @llvm.lifetime.end.p0(i64 56, ptr nonnull %6) #6
  ret ptr %.038
}